target datalayout = "e-m:e-p270:32:32-p271:32:32-p272:64:64-i64:64-i128:128-f80:128-n8:16:32:64-S128"
target triple = "x86_64-pc-linux-gnu"

%struct.tmpi_datatype_ = type { i64, ptr, i32, ptr, i32 }
%struct.tmpi_datatype_component = type { ptr, i32 }
%struct.tmpi_global = type { ptr, i32, i32, %struct.tMPI_Spinlock, %struct.tMPI_Thread_mutex_t, %struct.tMPI_Thread_barrier_t, %struct.tMPI_Thread_mutex_t, %struct.timeval }
%struct.tMPI_Spinlock = type { i32, [60 x i8] }
%struct.tMPI_Thread_barrier_t = type { %struct.tMPI_Atomic, ptr, i32, i32, i32 }
%struct.tMPI_Atomic = type { i32, [60 x i8] }
%struct.tMPI_Thread_mutex_t = type { %struct.tMPI_Atomic, ptr }
%struct.timeval = type { i64, i64 }

@tmpi_global = external global ptr, align 8
@Nthreads = external global i32, align 4

; Function Attrs: inlinehint mustprogress nounwind uwtable
define internal void @_ZL20tMPI_Spinlock_unlockP13tMPI_Spinlock(ptr noundef %0) #4 {
  %2 = alloca ptr, align 8
  store ptr %0, ptr %2, align 8, !tbaa !194
  %3 = load ptr, ptr %2, align 8, !tbaa !194
  %4 = getelementptr inbounds nuw %struct.tMPI_Spinlock, ptr %3, i32 0, i32 0
  call void asm sideeffect "\0A\09movl $$0, $0\0A", "=*m,~{memory},~{dirflag},~{fpsr},~{flags}"(ptr elementtype(i32) %4) #6, !srcloc !197
  ret void
}

; Function Attrs: inlinehint mustprogress nounwind uwtable
define internal void @_ZL18tMPI_Spinlock_lockP13tMPI_Spinlock(ptr noundef %0) #4 {
  %2 = alloca ptr, align 8
  store ptr %0, ptr %2, align 8, !tbaa !194
  %3 = load ptr, ptr %2, align 8, !tbaa !194
  %4 = getelementptr inbounds nuw %struct.tMPI_Spinlock, ptr %3, i32 0, i32 0
  call void asm sideeffect "1:\09cmpl $$0, $0\0A\09je 2f\0A\09pause\0A\09jmp 1b\0A2:\09movl $$1, %eax\0A\09xchgl %eax, $0\0A\09cmpl $$0, %eax\0A\09jne 1b", "=*m,*m,~{eax},~{memory},~{dirflag},~{fpsr},~{flags}"(ptr elementtype(i32) %4, ptr elementtype(i32) %4) #6, !srcloc !196
  ret void
}

; Function Attrs: mustprogress uwtable
define noundef i32 @_Z20tMPI_Type_contiguousiP14tmpi_datatype_PS0_(i32 noundef %0, ptr noundef %1, ptr noundef %2) #1 {
  %4 = alloca i32, align 4
  %5 = alloca ptr, align 8
  %6 = alloca ptr, align 8
  %7 = alloca ptr, align 8
  store i32 %0, ptr %4, align 4, !tbaa !7
  store ptr %1, ptr %5, align 8, !tbaa !166
  store ptr %2, ptr %6, align 8, !tbaa !168
  call void @llvm.lifetime.start.p0(i64 8, ptr %7) #6
  %8 = call noundef ptr @_Z11tMPI_Mallocm(i64 noundef 40)
  store ptr %8, ptr %7, align 8, !tbaa !166
  %9 = load i32, ptr %4, align 4, !tbaa !7
  %10 = sext i32 %9 to i64
  %11 = load ptr, ptr %5, align 8, !tbaa !166
  %12 = getelementptr inbounds nuw %struct.tmpi_datatype_, ptr %11, i32 0, i32 0
  %13 = load i64, ptr %12, align 8, !tbaa !171
  %14 = mul i64 %10, %13
  %15 = load ptr, ptr %7, align 8, !tbaa !166
  %16 = getelementptr inbounds nuw %struct.tmpi_datatype_, ptr %15, i32 0, i32 0
  store i64 %14, ptr %16, align 8, !tbaa !171
  %17 = load ptr, ptr %7, align 8, !tbaa !166
  %18 = getelementptr inbounds nuw %struct.tmpi_datatype_, ptr %17, i32 0, i32 1
  store ptr null, ptr %18, align 8, !tbaa !174
  %19 = load ptr, ptr %7, align 8, !tbaa !166
  %20 = getelementptr inbounds nuw %struct.tmpi_datatype_, ptr %19, i32 0, i32 2
  store i32 1, ptr %20, align 8, !tbaa !175
  %21 = call noundef ptr @_Z11tMPI_Mallocm(i64 noundef 16)
  %22 = load ptr, ptr %7, align 8, !tbaa !166
  %23 = getelementptr inbounds nuw %struct.tmpi_datatype_, ptr %22, i32 0, i32 3
  store ptr %21, ptr %23, align 8, !tbaa !176
  %24 = load ptr, ptr %5, align 8, !tbaa !166
  %25 = load ptr, ptr %7, align 8, !tbaa !166
  %26 = getelementptr inbounds nuw %struct.tmpi_datatype_, ptr %25, i32 0, i32 3
  %27 = load ptr, ptr %26, align 8, !tbaa !176
  %28 = getelementptr inbounds %struct.tmpi_datatype_component, ptr %27, i64 0
  %29 = getelementptr inbounds nuw %struct.tmpi_datatype_component, ptr %28, i32 0, i32 0
  store ptr %24, ptr %29, align 8, !tbaa !177
  %30 = load ptr, ptr %7, align 8, !tbaa !166
  %31 = getelementptr inbounds nuw %struct.tmpi_datatype_, ptr %30, i32 0, i32 3
  %32 = load ptr, ptr %31, align 8, !tbaa !176
  %33 = getelementptr inbounds %struct.tmpi_datatype_component, ptr %32, i64 0
  %34 = getelementptr inbounds nuw %struct.tmpi_datatype_component, ptr %33, i32 0, i32 1
  store i32 1, ptr %34, align 8, !tbaa !179
  %35 = load ptr, ptr %7, align 8, !tbaa !166
  %36 = getelementptr inbounds nuw %struct.tmpi_datatype_, ptr %35, i32 0, i32 4
  store i32 0, ptr %36, align 8, !tbaa !180
  %37 = load ptr, ptr @tmpi_global, align 8, !tbaa !181
  %38 = getelementptr inbounds nuw %struct.tmpi_global, ptr %37, i32 0, i32 3
  call void @_ZL18tMPI_Spinlock_lockP13tMPI_Spinlock(ptr noundef %38)
  %39 = load ptr, ptr @tmpi_global, align 8, !tbaa !181
  %40 = getelementptr inbounds nuw %struct.tmpi_global, ptr %39, i32 0, i32 1
  %41 = load i32, ptr %40, align 8, !tbaa !183
  %42 = add nsw i32 %41, 1
  %43 = load ptr, ptr @tmpi_global, align 8, !tbaa !181
  %44 = getelementptr inbounds nuw %struct.tmpi_global, ptr %43, i32 0, i32 2
  %45 = load i32, ptr %44, align 4, !tbaa !192
  %46 = icmp sge i32 %42, %45
  br i1 %46, label %47, label %67

47:                                               ; preds = %3
  %48 = load i32, ptr @Nthreads, align 4, !tbaa !7
  %49 = load ptr, ptr @tmpi_global, align 8, !tbaa !181
  %50 = getelementptr inbounds nuw %struct.tmpi_global, ptr %49, i32 0, i32 1
  %51 = load i32, ptr %50, align 8, !tbaa !183
  %52 = mul nsw i32 %48, %51
  %53 = add nsw i32 %52, 1
  %54 = load ptr, ptr @tmpi_global, align 8, !tbaa !181
  %55 = getelementptr inbounds nuw %struct.tmpi_global, ptr %54, i32 0, i32 2
  store i32 %53, ptr %55, align 4, !tbaa !192
  %56 = load ptr, ptr @tmpi_global, align 8, !tbaa !181
  %57 = getelementptr inbounds nuw %struct.tmpi_global, ptr %56, i32 0, i32 0
  %58 = load ptr, ptr %57, align 8, !tbaa !193
  %59 = load ptr, ptr @tmpi_global, align 8, !tbaa !181
  %60 = getelementptr inbounds nuw %struct.tmpi_global, ptr %59, i32 0, i32 2
  %61 = load i32, ptr %60, align 4, !tbaa !192
  %62 = sext i32 %61 to i64
  %63 = mul i64 8, %62
  %64 = call noundef ptr @_Z12tMPI_ReallocPvm(ptr noundef %58, i64 noundef %63)
  %65 = load ptr, ptr @tmpi_global, align 8, !tbaa !181
  %66 = getelementptr inbounds nuw %struct.tmpi_global, ptr %65, i32 0, i32 0
  store ptr %64, ptr %66, align 8, !tbaa !193
  br label %67

67:                                               ; preds = %47, %3
  %68 = load ptr, ptr %7, align 8, !tbaa !166
  %69 = load ptr, ptr @tmpi_global, align 8, !tbaa !181
  %70 = getelementptr inbounds nuw %struct.tmpi_global, ptr %69, i32 0, i32 0
  %71 = load ptr, ptr %70, align 8, !tbaa !193
  %72 = load ptr, ptr @tmpi_global, align 8, !tbaa !181
  %73 = getelementptr inbounds nuw %struct.tmpi_global, ptr %72, i32 0, i32 1
  %74 = load i32, ptr %73, align 8, !tbaa !183
  %75 = sext i32 %74 to i64
  %76 = getelementptr inbounds ptr, ptr %71, i64 %75
  store ptr %68, ptr %76, align 8, !tbaa !166
  %77 = load ptr, ptr @tmpi_global, align 8, !tbaa !181
  %78 = getelementptr inbounds nuw %struct.tmpi_global, ptr %77, i32 0, i32 1
  %79 = load i32, ptr %78, align 8, !tbaa !183
  %80 = add nsw i32 %79, 1
  store i32 %80, ptr %78, align 8, !tbaa !183
  %81 = load ptr, ptr %7, align 8, !tbaa !166
  %82 = load ptr, ptr %6, align 8, !tbaa !168
  store ptr %81, ptr %82, align 8, !tbaa !166
  %83 = load ptr, ptr @tmpi_global, align 8, !tbaa !181
  %84 = getelementptr inbounds nuw %struct.tmpi_global, ptr %83, i32 0, i32 3
  call void @_ZL20tMPI_Spinlock_unlockP13tMPI_Spinlock(ptr noundef %84)
  call void @llvm.lifetime.end.p0(i64 8, ptr %7) #6
  ret i32 0
}