; Function Attrs: mustprogress uwtable
define noundef i32 @_Z20tMPI_Type_contiguousiP14tmpi_datatype_PS0_(i32 noundef %0, ptr noundef %1, ptr noundef writeonly captures(none) initializes((0, 8)) %2) local_unnamed_addr #1 {
  %4 = tail call noundef ptr @_Z11tMPI_Mallocm(i64 noundef 40)
  %5 = sext i32 %0 to i64
  %6 = load i64, ptr %1, align 8, !tbaa !148
  %7 = mul i64 %6, %5
  store i64 %7, ptr %4, align 8, !tbaa !148
  %8 = getelementptr inbounds nuw i8, ptr %4, i64 8
  store ptr null, ptr %8, align 8, !tbaa !153
  %9 = getelementptr inbounds nuw i8, ptr %4, i64 16
  store i32 1, ptr %9, align 8, !tbaa !154
  %10 = tail call noundef ptr @_Z11tMPI_Mallocm(i64 noundef 16)
  %11 = getelementptr inbounds nuw i8, ptr %4, i64 24
  store ptr %10, ptr %11, align 8, !tbaa !155
  store ptr %1, ptr %10, align 8, !tbaa !156
  %12 = getelementptr inbounds nuw i8, ptr %10, i64 8
  store i32 1, ptr %12, align 8, !tbaa !159
  %13 = getelementptr inbounds nuw i8, ptr %4, i64 32
  store i32 0, ptr %13, align 8, !tbaa !160
  %14 = load ptr, ptr @tmpi_global, align 8, !tbaa !161
  %15 = getelementptr inbounds nuw i8, ptr %14, i64 16
  tail call void asm sideeffect "1:\09cmpl $$0, $0\0A\09je 2f\0A\09pause\0A\09jmp 1b\0A2:\09movl $$1, %eax\0A\09xchgl %eax, $0\0A\09cmpl $$0, %eax\0A\09jne 1b", "=*m,*m,~{eax},~{memory},~{dirflag},~{fpsr},~{flags}"(ptr nonnull elementtype(i32) %15, ptr nonnull elementtype(i32) %15) #5, !srcloc !163
  %16 = load ptr, ptr @tmpi_global, align 8, !tbaa !161
  %17 = getelementptr inbounds nuw i8, ptr %16, i64 8
  %18 = load i32, ptr %17, align 8, !tbaa !164
  %19 = add nsw i32 %18, 1
  %20 = getelementptr inbounds nuw i8, ptr %16, i64 12
  %21 = load i32, ptr %20, align 4, !tbaa !174
  %.not = icmp slt i32 %19, %21
  br i1 %.not, label %._crit_edge, label %22

._crit_edge:                                      ; preds = %3
  %.pre = load ptr, ptr %16, align 8, !tbaa !175
  br label %31

22:                                               ; preds = %3
  %23 = load i32, ptr @Nthreads, align 4, !tbaa !36
  %24 = mul nsw i32 %23, %18
  %25 = add nsw i32 %24, 1
  store i32 %25, ptr %20, align 4, !tbaa !174
  %26 = load ptr, ptr %16, align 8, !tbaa !175
  %27 = sext i32 %25 to i64
  %28 = shl nsw i64 %27, 3
  %29 = tail call noundef ptr @_Z12tMPI_ReallocPvm(ptr noundef %26, i64 noundef %28)
  %30 = load ptr, ptr @tmpi_global, align 8, !tbaa !161
  store ptr %29, ptr %30, align 8, !tbaa !175
  %.phi.trans.insert = getelementptr inbounds nuw i8, ptr %30, i64 8
  %.pre12 = load i32, ptr %.phi.trans.insert, align 8, !tbaa !164
  %.pre13 = add nsw i32 %.pre12, 1
  br label %31

31:                                               ; preds = %._crit_edge, %22
  %.pre-phi = phi i32 [ %19, %._crit_edge ], [ %.pre13, %22 ]
  %32 = phi i32 [ %18, %._crit_edge ], [ %.pre12, %22 ]
  %33 = phi ptr [ %.pre, %._crit_edge ], [ %29, %22 ]
  %34 = phi ptr [ %16, %._crit_edge ], [ %30, %22 ]
  %35 = getelementptr inbounds nuw i8, ptr %34, i64 8
  %36 = sext i32 %32 to i64
  %37 = getelementptr inbounds ptr, ptr %33, i64 %36
  store ptr %4, ptr %37, align 8, !tbaa !176
  store i32 %.pre-phi, ptr %35, align 8, !tbaa !164
  store ptr %4, ptr %2, align 8, !tbaa !176
  %38 = getelementptr inbounds nuw i8, ptr %34, i64 16
  tail call void asm sideeffect "\0A\09movl $$0, $0\0A", "=*m,~{memory},~{dirflag},~{fpsr},~{flags}"(ptr nonnull elementtype(i32) %38) #5, !srcloc !177
  ret i32 0
}